; Function Attrs: mustprogress uwtable
define hidden noundef nonnull ptr @_ZN5boost6detail31get_or_make_current_thread_dataEv() local_unnamed_addr #9 personality ptr @__gxx_personality_v0 {
  %1 = tail call noundef zeroext i1 @_ZN5boost13thread_detail17enter_once_regionERNS_9once_flagE(ptr noundef nonnull align 4 dereferenceable(4) @_ZN5boost6detail12_GLOBAL__N_128current_thread_tls_init_flagE) #32
  br i1 %1, label %_ZN5boost6detail6invokeIPFvvEJEEEDTclclsr5boostE7forwardIT_Efp_Espclsr5boostE7forwardIT0_Efp0_EEEOS4_DpOS5_.exit.i.i, label %_ZN5boost6detail23get_current_thread_dataEv.exit

_ZN5boost6detail6invokeIPFvvEJEEEDTclclsr5boostE7forwardIT_Efp_Espclsr5boostE7forwardIT0_Efp0_EEEOS4_DpOS5_.exit.i.i: ; preds = %0
  %2 = tail call i32 @pthread_key_create(ptr noundef nonnull @_ZN5boost6detail12_GLOBAL__N_122current_thread_tls_keyE, ptr noundef nonnull @_ZN5boost6detail12_GLOBAL__N_114tls_destructorEPv) #32
  tail call void @_ZN5boost13thread_detail18commit_once_regionERNS_9once_flagE(ptr noundef nonnull align 4 dereferenceable(4) @_ZN5boost6detail12_GLOBAL__N_128current_thread_tls_init_flagE) #32
  br label %_ZN5boost6detail23get_current_thread_dataEv.exit

_ZN5boost6detail23get_current_thread_dataEv.exit: ; preds = %0, %_ZN5boost6detail6invokeIPFvvEJEEEDTclclsr5boostE7forwardIT_Efp_Espclsr5boostE7forwardIT0_Efp0_EEEOS4_DpOS5_.exit.i.i
  %3 = load i32, ptr @_ZN5boost6detail12_GLOBAL__N_122current_thread_tls_keyE, align 4, !tbaa !54
  %4 = tail call noundef ptr @pthread_getspecific(i32 noundef %3) #32
  %.not = icmp eq ptr %4, null
  br i1 %.not, label %5, label %7

5:                                                ; preds = %_ZN5boost6detail23get_current_thread_dataEv.exit
  %6 = tail call noundef ptr @_ZN5boost6detail25make_external_thread_dataEv()
  br label %7

7:                                                ; preds = %5, %_ZN5boost6detail23get_current_thread_dataEv.exit
  %.0 = phi ptr [ %4, %_ZN5boost6detail23get_current_thread_dataEv.exit ], [ %6, %5 ]
  ret ptr %.0
}